target datalayout = "e-m:e-p270:32:32-p271:32:32-p272:64:64-i64:64-i128:128-f80:128-n8:16:32:64-S128"
target triple = "x86_64-pc-linux-gnu"

%"class.net::SpdyHeadersBlockParser" = type <{ ptr, i32, [4 x i8], i64, i64, i32, i32, ptr, %"struct.net::SpdyPinnableBufferPiece", %"struct.net::SpdyPinnableBufferPiece", i32, i32, i32, [4 x i8] }>
%"struct.net::SpdyPinnableBufferPiece" = type { ptr, i64, %"class.std::unique_ptr" }
%"class.std::unique_ptr" = type { %"struct.std::__uniq_ptr_data" }
%"struct.std::__uniq_ptr_data" = type { %"class.std::__uniq_ptr_impl" }
%"class.std::__uniq_ptr_impl" = type { %"class.std::tuple" }
%"class.std::tuple" = type { %"struct.std::_Tuple_impl" }
%"struct.std::_Tuple_impl" = type { %"struct.std::_Head_base.1" }
%"struct.std::_Head_base.1" = type { ptr }

@_ZTVN3net22SpdyHeadersBlockParserE = unnamed_addr constant { [4 x ptr] } { [4 x ptr] [ptr null, ptr @_ZTIN3net22SpdyHeadersBlockParserE, ptr @_ZN3net22SpdyHeadersBlockParserD1Ev, ptr @_ZN3net22SpdyHeadersBlockParserD0Ev] }, align 8

; Function Attrs: mustprogress nounwind uwtable
define noundef i64 @_ZN3net22SpdyHeadersBlockParser18MaxNumberOfHeadersEv() #1 align 2 {
  %1 = alloca i64, align 8
  call void @llvm.lifetime.start.p0(i64 8, ptr %1) #10
  store i64 16380, ptr %1, align 8, !tbaa !35
  %2 = load i64, ptr %1, align 8, !tbaa !35
  %3 = udiv i64 %2, 8
  call void @llvm.lifetime.end.p0(i64 8, ptr %1) #10
  ret i64 %3
}

; Function Attrs: mustprogress uwtable
define void @_ZN3net22SpdyHeadersBlockParserC2ENS_16SpdyMajorVersionEPNS_27SpdyHeadersHandlerInterfaceE(ptr noundef nonnull align 8 dereferenceable(108) %0, i32 noundef %1, ptr noundef %2) unnamed_addr #0 align 2 personality ptr @__gxx_personality_v0 {
  %4 = alloca ptr, align 8
  %5 = alloca i32, align 4
  %6 = alloca ptr, align 8
  %7 = alloca ptr, align 8
  %8 = alloca i32, align 4
  store ptr %0, ptr %4, align 8, !tbaa !3
  store i32 %1, ptr %5, align 4, !tbaa !8
  store ptr %2, ptr %6, align 8, !tbaa !10
  %9 = load ptr, ptr %4, align 8
  store ptr getelementptr inbounds inrange(-16, 16) ({ [4 x ptr] }, ptr @_ZTVN3net22SpdyHeadersBlockParserE, i32 0, i32 0, i32 2), ptr %9, align 8, !tbaa !12
  %10 = getelementptr inbounds nuw %"class.net::SpdyHeadersBlockParser", ptr %9, i32 0, i32 1
  store i32 0, ptr %10, align 8, !tbaa !14
  %11 = getelementptr inbounds nuw %"class.net::SpdyHeadersBlockParser", ptr %9, i32 0, i32 3
  %12 = call noundef i64 @_ZN3net22SpdyHeadersBlockParser18MaxNumberOfHeadersEv()
  store i64 %12, ptr %11, align 8, !tbaa !28
  %13 = getelementptr inbounds nuw %"class.net::SpdyHeadersBlockParser", ptr %9, i32 0, i32 4
  store i64 0, ptr %13, align 8, !tbaa !29
  %14 = getelementptr inbounds nuw %"class.net::SpdyHeadersBlockParser", ptr %9, i32 0, i32 5
  store i32 0, ptr %14, align 8, !tbaa !30
  %15 = getelementptr inbounds nuw %"class.net::SpdyHeadersBlockParser", ptr %9, i32 0, i32 7
  %16 = load ptr, ptr %6, align 8, !tbaa !10
  store ptr %16, ptr %15, align 8, !tbaa !31
  %17 = getelementptr inbounds nuw %"class.net::SpdyHeadersBlockParser", ptr %9, i32 0, i32 8
  call void @_ZN3net23SpdyPinnableBufferPieceC1Ev(ptr noundef nonnull align 8 dereferenceable(24) %17)
  %18 = getelementptr inbounds nuw %"class.net::SpdyHeadersBlockParser", ptr %9, i32 0, i32 9
  invoke void @_ZN3net23SpdyPinnableBufferPieceC1Ev(ptr noundef nonnull align 8 dereferenceable(24) %18)
          to label %19 unwind label %24

19:                                               ; preds = %3
  %20 = getelementptr inbounds nuw %"class.net::SpdyHeadersBlockParser", ptr %9, i32 0, i32 10
  store i32 0, ptr %20, align 8, !tbaa !32
  %21 = getelementptr inbounds nuw %"class.net::SpdyHeadersBlockParser", ptr %9, i32 0, i32 11
  store i32 0, ptr %21, align 4, !tbaa !33
  %22 = getelementptr inbounds nuw %"class.net::SpdyHeadersBlockParser", ptr %9, i32 0, i32 12
  %23 = load i32, ptr %5, align 4, !tbaa !8
  store i32 %23, ptr %22, align 8, !tbaa !34
  ret void

24:                                               ; preds = %3
  %25 = landingpad { ptr, i32 }
          cleanup
  %26 = extractvalue { ptr, i32 } %25, 0
  store ptr %26, ptr %7, align 8
  %27 = extractvalue { ptr, i32 } %25, 1
  store i32 %27, ptr %8, align 4
  call void @_ZN3net23SpdyPinnableBufferPieceD1Ev(ptr noundef nonnull align 8 dereferenceable(24) %17) #10
  br label %28

28:                                               ; preds = %24
  %29 = load ptr, ptr %7, align 8
  %30 = load i32, ptr %8, align 4
  %31 = insertvalue { ptr, i32 } poison, ptr %29, 0
  %32 = insertvalue { ptr, i32 } %31, i32 %30, 1
  resume { ptr, i32 } %32
}