; Function Attrs: mustprogress uwtable
define void @_ZN3net22SpdyHeadersBlockParserC2ENS_16SpdyMajorVersionEPNS_27SpdyHeadersHandlerInterfaceE(ptr noundef nonnull align 8 dereferenceable(108) initializes((0, 12), (16, 36), (40, 48)) %0, i32 noundef %1, ptr noundef %2) unnamed_addr #0 align 2 personality ptr @__gxx_personality_v0 {
  store ptr getelementptr inbounds nuw inrange(-16, 16) (i8, ptr @_ZTVN3net22SpdyHeadersBlockParserE, i64 16), ptr %0, align 8, !tbaa !3
  %4 = getelementptr inbounds nuw i8, ptr %0, i64 8
  store i32 0, ptr %4, align 8, !tbaa !6
  %5 = getelementptr inbounds nuw i8, ptr %0, i64 16
  store i64 2047, ptr %5, align 8, !tbaa !24
  %6 = getelementptr inbounds nuw i8, ptr %0, i64 24
  store i64 0, ptr %6, align 8, !tbaa !25
  %7 = getelementptr inbounds nuw i8, ptr %0, i64 32
  store i32 0, ptr %7, align 8, !tbaa !26
  %8 = getelementptr inbounds nuw i8, ptr %0, i64 40
  store ptr %2, ptr %8, align 8, !tbaa !27
  %9 = getelementptr inbounds nuw i8, ptr %0, i64 48
  tail call void @_ZN3net23SpdyPinnableBufferPieceC1Ev(ptr noundef nonnull align 8 dereferenceable(24) %9)
  %10 = getelementptr inbounds nuw i8, ptr %0, i64 72
  invoke void @_ZN3net23SpdyPinnableBufferPieceC1Ev(ptr noundef nonnull align 8 dereferenceable(24) %10)
          to label %11 unwind label %15

11:                                               ; preds = %3
  %12 = getelementptr inbounds nuw i8, ptr %0, i64 96
  store i32 0, ptr %12, align 8, !tbaa !28
  %13 = getelementptr inbounds nuw i8, ptr %0, i64 100
  store i32 0, ptr %13, align 4, !tbaa !29
  %14 = getelementptr inbounds nuw i8, ptr %0, i64 104
  store i32 %1, ptr %14, align 8, !tbaa !30
  ret void

15:                                               ; preds = %3
  %16 = landingpad { ptr, i32 }
          cleanup
  tail call void @_ZN3net23SpdyPinnableBufferPieceD1Ev(ptr noundef nonnull align 8 dereferenceable(24) %9) #8
  resume { ptr, i32 } %16
}